target datalayout = "e-m:e-p270:32:32-p271:32:32-p272:64:64-i64:64-i128:128-f80:128-n8:16:32:64-S128"
target triple = "x86_64-pc-linux-gnu"

%"class.std::__cxx11::basic_string" = type { %"struct.std::__cxx11::basic_string<char>::_Alloc_hider", i64, %union.anon }
%"struct.std::__cxx11::basic_string<char>::_Alloc_hider" = type { ptr }
%union.anon = type { i64, [8 x i8] }
%"class.std::vector.3" = type { %"struct.std::_Vector_base.4" }
%"struct.std::_Vector_base.4" = type { %"struct.std::_Vector_base<std::__cxx11::basic_string<char>, std::allocator<std::__cxx11::basic_string<char>>>::_Vector_impl" }
%"struct.std::_Vector_base<std::__cxx11::basic_string<char>, std::allocator<std::__cxx11::basic_string<char>>>::_Vector_impl" = type { %"struct.std::_Vector_base<std::__cxx11::basic_string<char>, std::allocator<std::__cxx11::basic_string<char>>>::_Vector_impl_data" }
%"struct.std::_Vector_base<std::__cxx11::basic_string<char>, std::allocator<std::__cxx11::basic_string<char>>>::_Vector_impl_data" = type { ptr, ptr, ptr }
%"struct.std::_Rb_tree_iterator" = type { ptr }
%"class.Imf_3_4::IDManifest::ChannelGroupManifest" = type <{ %"class.std::set", %"class.std::vector.3", i32, [4 x i8], %"class.std::__cxx11::basic_string", %"class.std::__cxx11::basic_string", %"class.std::map", %"struct.std::_Rb_tree_iterator", i8, [7 x i8] }>
%"class.std::set" = type { %"class.std::_Rb_tree" }
%"class.std::_Rb_tree" = type { %"struct.std::_Rb_tree<std::__cxx11::basic_string<char>, std::__cxx11::basic_string<char>, std::_Identity<std::__cxx11::basic_string<char>>, std::less<std::__cxx11::basic_string<char>>>::_Rb_tree_impl" }
%"struct.std::_Rb_tree<std::__cxx11::basic_string<char>, std::__cxx11::basic_string<char>, std::_Identity<std::__cxx11::basic_string<char>>, std::less<std::__cxx11::basic_string<char>>>::_Rb_tree_impl" = type { [8 x i8], %"struct.std::_Rb_tree_header" }
%"struct.std::_Rb_tree_header" = type { %"struct.std::_Rb_tree_node_base", i64 }
%"struct.std::_Rb_tree_node_base" = type { i32, ptr, ptr, ptr }
%"class.std::map" = type { %"class.std::_Rb_tree.18" }
%"class.std::_Rb_tree.18" = type { %"struct.std::_Rb_tree<unsigned long, std::pair<const unsigned long, std::vector<std::__cxx11::basic_string<char>>>, std::_Select1st<std::pair<const unsigned long, std::vector<std::__cxx11::basic_string<char>>>>, std::less<unsigned long>>::_Rb_tree_impl" }
%"struct.std::_Rb_tree<unsigned long, std::pair<const unsigned long, std::vector<std::__cxx11::basic_string<char>>>, std::_Select1st<std::pair<const unsigned long, std::vector<std::__cxx11::basic_string<char>>>>, std::less<unsigned long>>::_Rb_tree_impl" = type { [8 x i8], %"struct.std::_Rb_tree_header" }
%"struct.std::pair.25" = type { i64, %"class.std::vector.3" }
%"struct.std::_Rb_tree_const_iterator" = type { ptr }
%"class.Imf_3_4::IDManifest::ChannelGroupManifest::ConstIterator" = type { %"struct.std::_Rb_tree_const_iterator" }
%"struct.std::_Rb_tree_node.53" = type { %"struct.std::_Rb_tree_node_base", %"struct.__gnu_cxx::__aligned_membuf.54" }
%"struct.__gnu_cxx::__aligned_membuf.54" = type { [32 x i8] }
%"struct.std::_Select1st" = type { i8 }

; Function Attrs: mustprogress nounwind uwtable
define linkonce_odr hidden noundef ptr @_ZNK9__gnu_cxx16__aligned_membufISt4pairIKmSt6vectorINSt7__cxx1112basic_stringIcSt11char_traitsIcESaIcEEESaIS9_EEEE7_M_addrEv(ptr noundef nonnull align 8 dereferenceable(32) %0) #5 comdat align 2 {
  %2 = alloca ptr, align 8
  store ptr %0, ptr %2, align 8, !tbaa !313
  %3 = load ptr, ptr %2, align 8
  %4 = getelementptr inbounds nuw %"struct.__gnu_cxx::__aligned_membuf.54", ptr %3, i32 0, i32 0
  ret ptr %4
}

; Function Attrs: mustprogress nounwind uwtable
define linkonce_odr hidden noundef ptr @_ZNK9__gnu_cxx16__aligned_membufISt4pairIKmSt6vectorINSt7__cxx1112basic_stringIcSt11char_traitsIcESaIcEEESaIS9_EEEE6_M_ptrEv(ptr noundef nonnull align 8 dereferenceable(32) %0) #5 comdat align 2 {
  %2 = alloca ptr, align 8
  store ptr %0, ptr %2, align 8, !tbaa !313
  %3 = load ptr, ptr %2, align 8
  %4 = call noundef ptr @_ZNK9__gnu_cxx16__aligned_membufISt4pairIKmSt6vectorINSt7__cxx1112basic_stringIcSt11char_traitsIcESaIcEEESaIS9_EEEE7_M_addrEv(ptr noundef nonnull align 8 dereferenceable(32) %3) #3
  ret ptr %4
}

; Function Attrs: mustprogress nounwind uwtable
define linkonce_odr hidden noundef nonnull align 8 dereferenceable(8) ptr @_ZNKSt10_Select1stISt4pairIKmSt6vectorINSt7__cxx1112basic_stringIcSt11char_traitsIcESaIcEEESaIS8_EEEEclERKSB_(ptr noundef nonnull align 1 dereferenceable(1) %0, ptr noundef nonnull align 8 dereferenceable(32) %1) #5 comdat align 2 {
  %3 = alloca ptr, align 8
  %4 = alloca ptr, align 8
  store ptr %0, ptr %3, align 8, !tbaa !389
  store ptr %1, ptr %4, align 8, !tbaa !311
  %5 = load ptr, ptr %4, align 8, !tbaa !311
  %6 = getelementptr inbounds nuw %"struct.std::pair.25", ptr %5, i32 0, i32 0
  ret ptr %6
}

; Function Attrs: mustprogress nounwind uwtable
define linkonce_odr hidden noundef ptr @_ZNKSt13_Rb_tree_nodeISt4pairIKmSt6vectorINSt7__cxx1112basic_stringIcSt11char_traitsIcESaIcEEESaIS8_EEEE9_M_valptrEv(ptr noundef nonnull align 8 dereferenceable(64) %0) #5 comdat align 2 {
  %2 = alloca ptr, align 8
  store ptr %0, ptr %2, align 8, !tbaa !308
  %3 = load ptr, ptr %2, align 8
  %4 = getelementptr inbounds nuw %"struct.std::_Rb_tree_node.53", ptr %3, i32 0, i32 1
  %5 = call noundef ptr @_ZNK9__gnu_cxx16__aligned_membufISt4pairIKmSt6vectorINSt7__cxx1112basic_stringIcSt11char_traitsIcESaIcEEESaIS9_EEEE6_M_ptrEv(ptr noundef nonnull align 8 dereferenceable(32) %4) #3
  ret ptr %5
}

; Function Attrs: mustprogress nounwind uwtable
define linkonce_odr hidden void @_ZNSt23_Rb_tree_const_iteratorISt4pairIKmSt6vectorINSt7__cxx1112basic_stringIcSt11char_traitsIcESaIcEEESaIS8_EEEEC2EPKSt18_Rb_tree_node_base(ptr noundef nonnull align 8 dereferenceable(8) %0, ptr noundef %1) unnamed_addr #5 comdat align 2 {
  %3 = alloca ptr, align 8
  %4 = alloca ptr, align 8
  store ptr %0, ptr %3, align 8, !tbaa !139
  store ptr %1, ptr %4, align 8, !tbaa !99
  %5 = load ptr, ptr %3, align 8
  %6 = getelementptr inbounds nuw %"struct.std::_Rb_tree_const_iterator", ptr %5, i32 0, i32 0
  %7 = load ptr, ptr %4, align 8, !tbaa !99
  store ptr %7, ptr %6, align 8, !tbaa !141
  ret void
}

; Function Attrs: mustprogress nounwind uwtable
define linkonce_odr hidden noundef ptr @_ZNSt8_Rb_treeImSt4pairIKmSt6vectorINSt7__cxx1112basic_stringIcSt11char_traitsIcESaIcEEESaIS8_EEESt10_Select1stISB_ESt4lessImESaISB_EE8_S_rightEPKSt18_Rb_tree_node_base(ptr noundef %0) #5 comdat align 2 {
  %2 = alloca ptr, align 8
  store ptr %0, ptr %2, align 8, !tbaa !99
  %3 = load ptr, ptr %2, align 8, !tbaa !99
  %4 = getelementptr inbounds nuw %"struct.std::_Rb_tree_node_base", ptr %3, i32 0, i32 3
  %5 = load ptr, ptr %4, align 8, !tbaa !258
  ret ptr %5
}

; Function Attrs: mustprogress nounwind uwtable
define linkonce_odr hidden noundef ptr @_ZNSt8_Rb_treeImSt4pairIKmSt6vectorINSt7__cxx1112basic_stringIcSt11char_traitsIcESaIcEEESaIS8_EEESt10_Select1stISB_ESt4lessImESaISB_EE7_S_leftEPKSt18_Rb_tree_node_base(ptr noundef %0) #5 comdat align 2 {
  %2 = alloca ptr, align 8
  store ptr %0, ptr %2, align 8, !tbaa !99
  %3 = load ptr, ptr %2, align 8, !tbaa !99
  %4 = getelementptr inbounds nuw %"struct.std::_Rb_tree_node_base", ptr %3, i32 0, i32 2
  %5 = load ptr, ptr %4, align 8, !tbaa !259
  ret ptr %5
}

; Function Attrs: mustprogress uwtable
define linkonce_odr hidden noundef nonnull align 8 dereferenceable(8) ptr @_ZNSt8_Rb_treeImSt4pairIKmSt6vectorINSt7__cxx1112basic_stringIcSt11char_traitsIcESaIcEEESaIS8_EEESt10_Select1stISB_ESt4lessImESaISB_EE6_S_keyEPKSt13_Rb_tree_nodeISB_E(ptr noundef %0) #6 comdat align 2 {
  %2 = alloca ptr, align 8
  %3 = alloca %"struct.std::_Select1st", align 1
  store ptr %0, ptr %2, align 8, !tbaa !308
  call void @llvm.lifetime.start.p0(i64 1, ptr %3) #3
  %4 = load ptr, ptr %2, align 8, !tbaa !308
  %5 = call noundef ptr @_ZNKSt13_Rb_tree_nodeISt4pairIKmSt6vectorINSt7__cxx1112basic_stringIcSt11char_traitsIcESaIcEEESaIS8_EEEE9_M_valptrEv(ptr noundef nonnull align 8 dereferenceable(64) %4)
  %6 = call noundef nonnull align 8 dereferenceable(8) ptr @_ZNKSt10_Select1stISt4pairIKmSt6vectorINSt7__cxx1112basic_stringIcSt11char_traitsIcESaIcEEESaIS8_EEEEclERKSB_(ptr noundef nonnull align 1 dereferenceable(1) %3, ptr noundef nonnull align 8 dereferenceable(32) %5)
  call void @llvm.lifetime.end.p0(i64 1, ptr %3) #3
  ret ptr %6
}

; Function Attrs: mustprogress nounwind uwtable
define linkonce_odr hidden noundef zeroext i1 @_ZNKSt4lessImEclERKmS2_(ptr noundef nonnull align 1 dereferenceable(1) %0, ptr noundef nonnull align 8 dereferenceable(8) %1, ptr noundef nonnull align 8 dereferenceable(8) %2) #5 comdat align 2 {
  %4 = alloca ptr, align 8
  %5 = alloca ptr, align 8
  %6 = alloca ptr, align 8
  store ptr %0, ptr %4, align 8, !tbaa !382
  store ptr %1, ptr %5, align 8, !tbaa !91
  store ptr %2, ptr %6, align 8, !tbaa !91
  %7 = load ptr, ptr %5, align 8, !tbaa !91
  %8 = load i64, ptr %7, align 8, !tbaa !18
  %9 = load ptr, ptr %6, align 8, !tbaa !91
  %10 = load i64, ptr %9, align 8, !tbaa !18
  %11 = icmp ult i64 %8, %10
  ret i1 %11
}

; Function Attrs: mustprogress uwtable
define linkonce_odr hidden noundef nonnull align 8 dereferenceable(8) ptr @_ZNSt8_Rb_treeImSt4pairIKmSt6vectorINSt7__cxx1112basic_stringIcSt11char_traitsIcESaIcEEESaIS8_EEESt10_Select1stISB_ESt4lessImESaISB_EE6_S_keyEPKSt18_Rb_tree_node_base(ptr noundef %0) #6 comdat align 2 {
  %2 = alloca ptr, align 8
  store ptr %0, ptr %2, align 8, !tbaa !99
  %3 = load ptr, ptr %2, align 8, !tbaa !99
  %4 = call noundef nonnull align 8 dereferenceable(8) ptr @_ZNSt8_Rb_treeImSt4pairIKmSt6vectorINSt7__cxx1112basic_stringIcSt11char_traitsIcESaIcEEESaIS8_EEESt10_Select1stISB_ESt4lessImESaISB_EE6_S_keyEPKSt13_Rb_tree_nodeISB_E(ptr noundef %3)
  ret ptr %4
}

; Function Attrs: mustprogress nounwind uwtable
define linkonce_odr noundef zeroext i1 @_ZSteqRKSt23_Rb_tree_const_iteratorISt4pairIKmSt6vectorINSt7__cxx1112basic_stringIcSt11char_traitsIcESaIcEEESaIS8_EEEESE_(ptr noundef nonnull align 8 dereferenceable(8) %0, ptr noundef nonnull align 8 dereferenceable(8) %1) #5 comdat {
  %3 = alloca ptr, align 8
  %4 = alloca ptr, align 8
  store ptr %0, ptr %3, align 8, !tbaa !139
  store ptr %1, ptr %4, align 8, !tbaa !139
  %5 = load ptr, ptr %3, align 8, !tbaa !139
  %6 = getelementptr inbounds nuw %"struct.std::_Rb_tree_const_iterator", ptr %5, i32 0, i32 0
  %7 = load ptr, ptr %6, align 8, !tbaa !141
  %8 = load ptr, ptr %4, align 8, !tbaa !139
  %9 = getelementptr inbounds nuw %"struct.std::_Rb_tree_const_iterator", ptr %8, i32 0, i32 0
  %10 = load ptr, ptr %9, align 8, !tbaa !141
  %11 = icmp eq ptr %7, %10
  ret i1 %11
}

; Function Attrs: mustprogress nounwind uwtable
define linkonce_odr hidden ptr @_ZNKSt8_Rb_treeImSt4pairIKmSt6vectorINSt7__cxx1112basic_stringIcSt11char_traitsIcESaIcEEESaIS8_EEESt10_Select1stISB_ESt4lessImESaISB_EE3endEv(ptr noundef nonnull align 8 dereferenceable(48) %0) #5 comdat align 2 {
  %2 = alloca %"struct.std::_Rb_tree_const_iterator", align 8
  %3 = alloca ptr, align 8
  store ptr %0, ptr %3, align 8, !tbaa !272
  %4 = load ptr, ptr %3, align 8
  %5 = getelementptr inbounds nuw %"class.std::_Rb_tree.18", ptr %4, i32 0, i32 0
  %6 = getelementptr inbounds i8, ptr %5, i64 8
  %7 = getelementptr inbounds nuw %"struct.std::_Rb_tree_header", ptr %6, i32 0, i32 0
  call void @_ZNSt23_Rb_tree_const_iteratorISt4pairIKmSt6vectorINSt7__cxx1112basic_stringIcSt11char_traitsIcESaIcEEESaIS8_EEEEC2EPKSt18_Rb_tree_node_base(ptr noundef nonnull align 8 dereferenceable(8) %2, ptr noundef %7) #3
  %8 = getelementptr inbounds nuw %"struct.std::_Rb_tree_const_iterator", ptr %2, i32 0, i32 0
  %9 = load ptr, ptr %8, align 8
  ret ptr %9
}

; Function Attrs: mustprogress uwtable
define linkonce_odr ptr @_ZNKSt8_Rb_treeImSt4pairIKmSt6vectorINSt7__cxx1112basic_stringIcSt11char_traitsIcESaIcEEESaIS8_EEESt10_Select1stISB_ESt4lessImESaISB_EE14_M_lower_boundEPKSt13_Rb_tree_nodeISB_EPKSt18_Rb_tree_node_baseRS1_(ptr noundef nonnull align 8 dereferenceable(48) %0, ptr noundef %1, ptr noundef %2, ptr noundef nonnull align 8 dereferenceable(8) %3) #6 comdat align 2 {
  %5 = alloca %"struct.std::_Rb_tree_const_iterator", align 8
  %6 = alloca ptr, align 8
  %7 = alloca ptr, align 8
  %8 = alloca ptr, align 8
  %9 = alloca ptr, align 8
  store ptr %0, ptr %6, align 8, !tbaa !272
  store ptr %1, ptr %7, align 8, !tbaa !308
  store ptr %2, ptr %8, align 8, !tbaa !99
  store ptr %3, ptr %9, align 8, !tbaa !91
  %10 = load ptr, ptr %6, align 8
  br label %11

11:                                               ; preds = %27, %4
  %12 = load ptr, ptr %7, align 8, !tbaa !308
  %13 = icmp ne ptr %12, null
  br i1 %13, label %14, label %28

14:                                               ; preds = %11
  %15 = getelementptr inbounds nuw %"class.std::_Rb_tree.18", ptr %10, i32 0, i32 0
  %16 = load ptr, ptr %7, align 8, !tbaa !308
  %17 = call noundef nonnull align 8 dereferenceable(8) ptr @_ZNSt8_Rb_treeImSt4pairIKmSt6vectorINSt7__cxx1112basic_stringIcSt11char_traitsIcESaIcEEESaIS8_EEESt10_Select1stISB_ESt4lessImESaISB_EE6_S_keyEPKSt13_Rb_tree_nodeISB_E(ptr noundef %16)
  %18 = load ptr, ptr %9, align 8, !tbaa !91
  %19 = call noundef zeroext i1 @_ZNKSt4lessImEclERKmS2_(ptr noundef nonnull align 1 dereferenceable(1) %15, ptr noundef nonnull align 8 dereferenceable(8) %17, ptr noundef nonnull align 8 dereferenceable(8) %18)
  br i1 %19, label %24, label %20

20:                                               ; preds = %14
  %21 = load ptr, ptr %7, align 8, !tbaa !308
  store ptr %21, ptr %8, align 8, !tbaa !99
  %22 = load ptr, ptr %7, align 8, !tbaa !308
  %23 = call noundef ptr @_ZNSt8_Rb_treeImSt4pairIKmSt6vectorINSt7__cxx1112basic_stringIcSt11char_traitsIcESaIcEEESaIS8_EEESt10_Select1stISB_ESt4lessImESaISB_EE7_S_leftEPKSt18_Rb_tree_node_base(ptr noundef %22) #3
  store ptr %23, ptr %7, align 8, !tbaa !308
  br label %27

24:                                               ; preds = %14
  %25 = load ptr, ptr %7, align 8, !tbaa !308
  %26 = call noundef ptr @_ZNSt8_Rb_treeImSt4pairIKmSt6vectorINSt7__cxx1112basic_stringIcSt11char_traitsIcESaIcEEESaIS8_EEESt10_Select1stISB_ESt4lessImESaISB_EE8_S_rightEPKSt18_Rb_tree_node_base(ptr noundef %25) #3
  store ptr %26, ptr %7, align 8, !tbaa !308
  br label %27

27:                                               ; preds = %24, %20
  br label %11, !llvm.loop !538

28:                                               ; preds = %11
  %29 = load ptr, ptr %8, align 8, !tbaa !99
  call void @_ZNSt23_Rb_tree_const_iteratorISt4pairIKmSt6vectorINSt7__cxx1112basic_stringIcSt11char_traitsIcESaIcEEESaIS8_EEEEC2EPKSt18_Rb_tree_node_base(ptr noundef nonnull align 8 dereferenceable(8) %5, ptr noundef %29) #3
  %30 = getelementptr inbounds nuw %"struct.std::_Rb_tree_const_iterator", ptr %5, i32 0, i32 0
  %31 = load ptr, ptr %30, align 8
  ret ptr %31
}

; Function Attrs: mustprogress nounwind uwtable
define linkonce_odr hidden noundef ptr @_ZNKSt8_Rb_treeImSt4pairIKmSt6vectorINSt7__cxx1112basic_stringIcSt11char_traitsIcESaIcEEESaIS8_EEESt10_Select1stISB_ESt4lessImESaISB_EE6_M_endEv(ptr noundef nonnull align 8 dereferenceable(48) %0) #5 comdat align 2 {
  %2 = alloca ptr, align 8
  store ptr %0, ptr %2, align 8, !tbaa !272
  %3 = load ptr, ptr %2, align 8
  %4 = getelementptr inbounds nuw %"class.std::_Rb_tree.18", ptr %3, i32 0, i32 0
  %5 = getelementptr inbounds i8, ptr %4, i64 8
  %6 = getelementptr inbounds nuw %"struct.std::_Rb_tree_header", ptr %5, i32 0, i32 0
  ret ptr %6
}

; Function Attrs: mustprogress nounwind uwtable
define linkonce_odr hidden noundef ptr @_ZNKSt8_Rb_treeImSt4pairIKmSt6vectorINSt7__cxx1112basic_stringIcSt11char_traitsIcESaIcEEESaIS8_EEESt10_Select1stISB_ESt4lessImESaISB_EE8_M_beginEv(ptr noundef nonnull align 8 dereferenceable(48) %0) #5 comdat align 2 {
  %2 = alloca ptr, align 8
  store ptr %0, ptr %2, align 8, !tbaa !272
  %3 = load ptr, ptr %2, align 8
  %4 = getelementptr inbounds nuw %"class.std::_Rb_tree.18", ptr %3, i32 0, i32 0
  %5 = getelementptr inbounds i8, ptr %4, i64 8
  %6 = getelementptr inbounds nuw %"struct.std::_Rb_tree_header", ptr %5, i32 0, i32 0
  %7 = getelementptr inbounds nuw %"struct.std::_Rb_tree_node_base", ptr %6, i32 0, i32 1
  %8 = load ptr, ptr %7, align 8, !tbaa !235
  ret ptr %8
}

; Function Attrs: mustprogress uwtable
define linkonce_odr ptr @_ZNKSt8_Rb_treeImSt4pairIKmSt6vectorINSt7__cxx1112basic_stringIcSt11char_traitsIcESaIcEEESaIS8_EEESt10_Select1stISB_ESt4lessImESaISB_EE4findERS1_(ptr noundef nonnull align 8 dereferenceable(48) %0, ptr noundef nonnull align 8 dereferenceable(8) %1) #6 comdat align 2 {
  %3 = alloca %"struct.std::_Rb_tree_const_iterator", align 8
  %4 = alloca ptr, align 8
  %5 = alloca ptr, align 8
  %6 = alloca %"struct.std::_Rb_tree_const_iterator", align 8
  %7 = alloca %"struct.std::_Rb_tree_const_iterator", align 8
  store ptr %0, ptr %4, align 8, !tbaa !272
  store ptr %1, ptr %5, align 8, !tbaa !91
  %8 = load ptr, ptr %4, align 8
  call void @llvm.lifetime.start.p0(i64 8, ptr %6) #3
  %9 = call noundef ptr @_ZNKSt8_Rb_treeImSt4pairIKmSt6vectorINSt7__cxx1112basic_stringIcSt11char_traitsIcESaIcEEESaIS8_EEESt10_Select1stISB_ESt4lessImESaISB_EE8_M_beginEv(ptr noundef nonnull align 8 dereferenceable(48) %8) #3
  %10 = call noundef ptr @_ZNKSt8_Rb_treeImSt4pairIKmSt6vectorINSt7__cxx1112basic_stringIcSt11char_traitsIcESaIcEEESaIS8_EEESt10_Select1stISB_ESt4lessImESaISB_EE6_M_endEv(ptr noundef nonnull align 8 dereferenceable(48) %8) #3
  %11 = load ptr, ptr %5, align 8, !tbaa !91
  %12 = call ptr @_ZNKSt8_Rb_treeImSt4pairIKmSt6vectorINSt7__cxx1112basic_stringIcSt11char_traitsIcESaIcEEESaIS8_EEESt10_Select1stISB_ESt4lessImESaISB_EE14_M_lower_boundEPKSt13_Rb_tree_nodeISB_EPKSt18_Rb_tree_node_baseRS1_(ptr noundef nonnull align 8 dereferenceable(48) %8, ptr noundef %9, ptr noundef %10, ptr noundef nonnull align 8 dereferenceable(8) %11)
  %13 = getelementptr inbounds nuw %"struct.std::_Rb_tree_const_iterator", ptr %6, i32 0, i32 0
  store ptr %12, ptr %13, align 8
  call void @llvm.lifetime.start.p0(i64 8, ptr %7) #3
  %14 = call ptr @_ZNKSt8_Rb_treeImSt4pairIKmSt6vectorINSt7__cxx1112basic_stringIcSt11char_traitsIcESaIcEEESaIS8_EEESt10_Select1stISB_ESt4lessImESaISB_EE3endEv(ptr noundef nonnull align 8 dereferenceable(48) %8) #3
  %15 = getelementptr inbounds nuw %"struct.std::_Rb_tree_const_iterator", ptr %7, i32 0, i32 0
  store ptr %14, ptr %15, align 8
  %16 = call noundef zeroext i1 @_ZSteqRKSt23_Rb_tree_const_iteratorISt4pairIKmSt6vectorINSt7__cxx1112basic_stringIcSt11char_traitsIcESaIcEEESaIS8_EEEESE_(ptr noundef nonnull align 8 dereferenceable(8) %6, ptr noundef nonnull align 8 dereferenceable(8) %7) #3
  br i1 %16, label %24, label %17

17:                                               ; preds = %2
  %18 = getelementptr inbounds nuw %"class.std::_Rb_tree.18", ptr %8, i32 0, i32 0
  %19 = load ptr, ptr %5, align 8, !tbaa !91
  %20 = getelementptr inbounds nuw %"struct.std::_Rb_tree_const_iterator", ptr %6, i32 0, i32 0
  %21 = load ptr, ptr %20, align 8, !tbaa !141
  %22 = call noundef nonnull align 8 dereferenceable(8) ptr @_ZNSt8_Rb_treeImSt4pairIKmSt6vectorINSt7__cxx1112basic_stringIcSt11char_traitsIcESaIcEEESaIS8_EEESt10_Select1stISB_ESt4lessImESaISB_EE6_S_keyEPKSt18_Rb_tree_node_base(ptr noundef %21)
  %23 = call noundef zeroext i1 @_ZNKSt4lessImEclERKmS2_(ptr noundef nonnull align 1 dereferenceable(1) %18, ptr noundef nonnull align 8 dereferenceable(8) %19, ptr noundef nonnull align 8 dereferenceable(8) %22)
  br i1 %23, label %24, label %27

24:                                               ; preds = %17, %2
  %25 = call ptr @_ZNKSt8_Rb_treeImSt4pairIKmSt6vectorINSt7__cxx1112basic_stringIcSt11char_traitsIcESaIcEEESaIS8_EEESt10_Select1stISB_ESt4lessImESaISB_EE3endEv(ptr noundef nonnull align 8 dereferenceable(48) %8) #3
  %26 = getelementptr inbounds nuw %"struct.std::_Rb_tree_const_iterator", ptr %3, i32 0, i32 0
  store ptr %25, ptr %26, align 8
  br label %28

27:                                               ; preds = %17
  call void @llvm.memcpy.p0.p0.i64(ptr align 8 %3, ptr align 8 %6, i64 8, i1 false), !tbaa.struct !98
  br label %28

28:                                               ; preds = %27, %24
  call void @llvm.lifetime.end.p0(i64 8, ptr %7) #3
  call void @llvm.lifetime.end.p0(i64 8, ptr %6) #3
  %29 = getelementptr inbounds nuw %"struct.std::_Rb_tree_const_iterator", ptr %3, i32 0, i32 0
  %30 = load ptr, ptr %29, align 8
  ret ptr %30
}

; Function Attrs: inlinehint mustprogress nounwind uwtable
define linkonce_odr void @_ZN7Imf_3_410IDManifest20ChannelGroupManifest13ConstIteratorC2ERKSt23_Rb_tree_const_iteratorISt4pairIKmSt6vectorINSt7__cxx1112basic_stringIcSt11char_traitsIcESaIcEEESaISC_EEEE(ptr noundef nonnull align 8 dereferenceable(8) %0, ptr noundef nonnull align 8 dereferenceable(8) %1) unnamed_addr #8 comdat align 2 {
  %3 = alloca ptr, align 8
  %4 = alloca ptr, align 8
  store ptr %0, ptr %3, align 8, !tbaa !173
  store ptr %1, ptr %4, align 8, !tbaa !139
  %5 = load ptr, ptr %3, align 8
  %6 = getelementptr inbounds nuw %"class.Imf_3_4::IDManifest::ChannelGroupManifest::ConstIterator", ptr %5, i32 0, i32 0
  %7 = load ptr, ptr %4, align 8, !tbaa !139
  call void @llvm.memcpy.p0.p0.i64(ptr align 8 %6, ptr align 8 %7, i64 8, i1 false), !tbaa.struct !98
  ret void
}

; Function Attrs: mustprogress uwtable
define linkonce_odr hidden ptr @_ZNKSt3mapImSt6vectorINSt7__cxx1112basic_stringIcSt11char_traitsIcESaIcEEESaIS6_EESt4lessImESaISt4pairIKmS8_EEE4findERSC_(ptr noundef nonnull align 8 dereferenceable(48) %0, ptr noundef nonnull align 8 dereferenceable(8) %1) #6 comdat align 2 {
  %3 = alloca %"struct.std::_Rb_tree_const_iterator", align 8
  %4 = alloca ptr, align 8
  %5 = alloca ptr, align 8
  store ptr %0, ptr %4, align 8, !tbaa !94
  store ptr %1, ptr %5, align 8, !tbaa !91
  %6 = load ptr, ptr %4, align 8
  %7 = getelementptr inbounds nuw %"class.std::map", ptr %6, i32 0, i32 0
  %8 = load ptr, ptr %5, align 8, !tbaa !91
  %9 = call ptr @_ZNKSt8_Rb_treeImSt4pairIKmSt6vectorINSt7__cxx1112basic_stringIcSt11char_traitsIcESaIcEEESaIS8_EEESt10_Select1stISB_ESt4lessImESaISB_EE4findERS1_(ptr noundef nonnull align 8 dereferenceable(48) %7, ptr noundef nonnull align 8 dereferenceable(8) %8)
  %10 = getelementptr inbounds nuw %"struct.std::_Rb_tree_const_iterator", ptr %3, i32 0, i32 0
  store ptr %9, ptr %10, align 8
  %11 = getelementptr inbounds nuw %"struct.std::_Rb_tree_const_iterator", ptr %3, i32 0, i32 0
  %12 = load ptr, ptr %11, align 8
  ret ptr %12
}

; Function Attrs: mustprogress uwtable
define ptr @_ZNK7Imf_3_410IDManifest20ChannelGroupManifest4findEm(ptr noundef nonnull align 8 dereferenceable(201) %0, i64 noundef %1) #6 align 2 {
  %3 = alloca %"class.Imf_3_4::IDManifest::ChannelGroupManifest::ConstIterator", align 8
  %4 = alloca ptr, align 8
  %5 = alloca i64, align 8
  %6 = alloca %"struct.std::_Rb_tree_const_iterator", align 8
  store ptr %0, ptr %4, align 8, !tbaa !25
  store i64 %1, ptr %5, align 8, !tbaa !18
  %7 = load ptr, ptr %4, align 8
  call void @llvm.lifetime.start.p0(i64 8, ptr %6) #3
  %8 = getelementptr inbounds nuw %"class.Imf_3_4::IDManifest::ChannelGroupManifest", ptr %7, i32 0, i32 6
  %9 = call ptr @_ZNKSt3mapImSt6vectorINSt7__cxx1112basic_stringIcSt11char_traitsIcESaIcEEESaIS6_EESt4lessImESaISt4pairIKmS8_EEE4findERSC_(ptr noundef nonnull align 8 dereferenceable(48) %8, ptr noundef nonnull align 8 dereferenceable(8) %5)
  %10 = getelementptr inbounds nuw %"struct.std::_Rb_tree_const_iterator", ptr %6, i32 0, i32 0
  store ptr %9, ptr %10, align 8
  call void @_ZN7Imf_3_410IDManifest20ChannelGroupManifest13ConstIteratorC2ERKSt23_Rb_tree_const_iteratorISt4pairIKmSt6vectorINSt7__cxx1112basic_stringIcSt11char_traitsIcESaIcEEESaISC_EEEE(ptr noundef nonnull align 8 dereferenceable(8) %3, ptr noundef nonnull align 8 dereferenceable(8) %6)
  call void @llvm.lifetime.end.p0(i64 8, ptr %6) #3
  %11 = getelementptr inbounds nuw %"class.Imf_3_4::IDManifest::ChannelGroupManifest::ConstIterator", ptr %3, i32 0, i32 0
  %12 = getelementptr inbounds nuw %"struct.std::_Rb_tree_const_iterator", ptr %11, i32 0, i32 0
  %13 = load ptr, ptr %12, align 8
  ret ptr %13
}